target datalayout = "e-m:e-p270:32:32-p271:32:32-p272:64:64-i64:64-i128:128-f80:128-n8:16:32:64-S128"
target triple = "x86_64-pc-linux-gnu"

@.str = private unnamed_addr constant [68 x i8] c"../openssl/providers/implementations/encode_decode/encode_key2any.c\00", align 1
@__func__.key_to_p8info = private unnamed_addr constant [14 x i8] c"key_to_p8info\00", align 1

; Function Attrs: nounwind uwtable
define internal ptr @key_to_p8info(ptr noundef %0, i32 noundef %1, ptr noundef %2, i32 noundef %3, ptr noundef %4, ptr noundef %5) #0 {
  %7 = alloca ptr, align 8
  %8 = alloca i32, align 4
  %9 = alloca ptr, align 8
  %10 = alloca i32, align 4
  %11 = alloca ptr, align 8
  %12 = alloca ptr, align 8
  %13 = alloca ptr, align 8
  %14 = alloca i32, align 4
  %15 = alloca ptr, align 8
  store ptr %0, ptr %7, align 8, !tbaa !3
  store i32 %1, ptr %8, align 4, !tbaa !25
  store ptr %2, ptr %9, align 8, !tbaa !3
  store i32 %3, ptr %10, align 4, !tbaa !25
  store ptr %4, ptr %11, align 8, !tbaa !3
  store ptr %5, ptr %12, align 8, !tbaa !7
  call void @llvm.lifetime.start.p0(i64 8, ptr %13) #4
  store ptr null, ptr %13, align 8, !tbaa !23
  call void @llvm.lifetime.start.p0(i64 4, ptr %14) #4
  call void @llvm.lifetime.start.p0(i64 8, ptr %15) #4
  store ptr null, ptr %15, align 8, !tbaa !52
  %16 = call ptr @PKCS8_PRIV_KEY_INFO_new()
  store ptr %16, ptr %15, align 8, !tbaa !52
  %17 = icmp eq ptr %16, null
  br i1 %17, label %34, label %18

18:                                               ; preds = %6
  %19 = load ptr, ptr %11, align 8, !tbaa !3
  %20 = load ptr, ptr %7, align 8, !tbaa !3
  %21 = load ptr, ptr %12, align 8, !tbaa !7
  %22 = call i32 %19(ptr noundef %20, ptr noundef %13, ptr noundef %21)
  store i32 %22, ptr %14, align 4, !tbaa !25
  %23 = icmp sle i32 %22, 0
  br i1 %23, label %34, label %24

24:                                               ; preds = %18
  %25 = load ptr, ptr %15, align 8, !tbaa !52
  %26 = load i32, ptr %8, align 4, !tbaa !25
  %27 = call ptr @OBJ_nid2obj(i32 noundef %26)
  %28 = load i32, ptr %10, align 4, !tbaa !25
  %29 = load ptr, ptr %9, align 8, !tbaa !3
  %30 = load ptr, ptr %13, align 8, !tbaa !23
  %31 = load i32, ptr %14, align 4, !tbaa !25
  %32 = call i32 @PKCS8_pkey_set0(ptr noundef %25, ptr noundef %27, i32 noundef 0, i32 noundef %28, ptr noundef %29, ptr noundef %30, i32 noundef %31)
  %33 = icmp ne i32 %32, 0
  br i1 %33, label %37, label %34

34:                                               ; preds = %24, %18, %6
  call void @ERR_new()
  call void @ERR_set_debug(ptr noundef @.str, i32 noundef 100, ptr noundef @__func__.key_to_p8info)
  call void (i32, i32, ptr, ...) @ERR_set_error(i32 noundef 57, i32 noundef 524301, ptr noundef null)
  %35 = load ptr, ptr %15, align 8, !tbaa !52
  call void @PKCS8_PRIV_KEY_INFO_free(ptr noundef %35)
  %36 = load ptr, ptr %13, align 8, !tbaa !23
  call void @CRYPTO_free(ptr noundef %36, ptr noundef @.str, i32 noundef 102)
  store ptr null, ptr %15, align 8, !tbaa !52
  br label %37

37:                                               ; preds = %34, %24
  %38 = load ptr, ptr %15, align 8, !tbaa !52
  call void @llvm.lifetime.end.p0(i64 8, ptr %15) #4
  call void @llvm.lifetime.end.p0(i64 4, ptr %14) #4
  call void @llvm.lifetime.end.p0(i64 8, ptr %13) #4
  ret ptr %38
}