; Function Attrs: nounwind uwtable
define internal fastcc ptr @key_to_p8info(ptr noundef %0, i32 noundef %1, ptr noundef %2, i32 noundef %3, ptr noundef readonly captures(none) %4, ptr noundef %5) unnamed_addr #0 {
  %7 = alloca ptr, align 8
  call void @llvm.lifetime.start.p0(i64 8, ptr nonnull %7) #5
  store ptr null, ptr %7, align 8, !tbaa !16
  %8 = tail call ptr @PKCS8_PRIV_KEY_INFO_new() #5
  %9 = icmp eq ptr %8, null
  br i1 %9, label %17, label %10

10:                                               ; preds = %6
  %11 = call i32 %4(ptr noundef %0, ptr noundef nonnull %7, ptr noundef %5) #5
  %12 = icmp slt i32 %11, 1
  br i1 %12, label %17, label %13

13:                                               ; preds = %10
  %14 = call ptr @OBJ_nid2obj(i32 noundef %1) #5
  %15 = load ptr, ptr %7, align 8, !tbaa !16
  %16 = call i32 @PKCS8_pkey_set0(ptr noundef nonnull %8, ptr noundef %14, i32 noundef 0, i32 noundef %3, ptr noundef %2, ptr noundef %15, i32 noundef %11) #5
  %.not = icmp eq i32 %16, 0
  br i1 %.not, label %17, label %19

17:                                               ; preds = %13, %10, %6
  call void @ERR_new() #5
  call void @ERR_set_debug(ptr noundef nonnull @.str, i32 noundef 100, ptr noundef nonnull @__func__.key_to_p8info) #5
  call void (i32, i32, ptr, ...) @ERR_set_error(i32 noundef 57, i32 noundef 524301, ptr noundef null) #5
  call void @PKCS8_PRIV_KEY_INFO_free(ptr noundef %8) #5
  %18 = load ptr, ptr %7, align 8, !tbaa !16
  call void @CRYPTO_free(ptr noundef %18, ptr noundef nonnull @.str, i32 noundef 102) #5
  br label %19

19:                                               ; preds = %17, %13
  %.0 = phi ptr [ null, %17 ], [ %8, %13 ]
  call void @llvm.lifetime.end.p0(i64 8, ptr nonnull %7) #5
  ret ptr %.0
}